; Function Attrs: mustprogress nounwind uwtable
define hidden noundef zeroext i1 @_ZNK9metaspace16VirtualSpaceList8containsEPKP12MetaWordImpl(ptr noundef nonnull align 8 dereferenceable(56) %0, ptr noundef readnone %1) local_unnamed_addr #1 align 2 {
  %3 = getelementptr inbounds i8, ptr %0, i64 16
  %4 = load volatile ptr, ptr %3, align 8
  tail call void asm sideeffect "", "~{memory},~{dirflag},~{fpsr},~{flags}"() #8, !srcloc !8
  %.not7.not = icmp eq ptr %4, null
  br i1 %.not7.not, label %._crit_edge, label %.lr.ph

.lr.ph:                                           ; preds = %2, %12
  %.08 = phi ptr [ %13, %12 ], [ %4, %2 ]
  %5 = getelementptr inbounds i8, ptr %.08, i64 72
  %6 = load ptr, ptr %5, align 8
  %.not.i = icmp ule ptr %6, %1
  %7 = getelementptr inbounds i8, ptr %.08, i64 88
  %8 = load i64, ptr %7, align 8
  %9 = getelementptr inbounds ptr, ptr %6, i64 %8
  %10 = icmp ugt ptr %9, %1
  %11 = select i1 %.not.i, i1 %10, i1 false
  br i1 %11, label %._crit_edge, label %12

12:                                               ; preds = %.lr.ph
  %13 = load ptr, ptr %.08, align 8
  %.not.not = icmp eq ptr %13, null
  br i1 %.not.not, label %._crit_edge, label %.lr.ph, !llvm.loop !10

._crit_edge:                                      ; preds = %.lr.ph, %12, %2
  %.not.lcssa = phi i1 [ false, %2 ], [ %11, %12 ], [ %11, %.lr.ph ]
  ret i1 %.not.lcssa
}